target datalayout = "e-m:e-p270:32:32-p271:32:32-p272:64:64-i64:64-i128:128-f80:128-n8:16:32:64-S128"
target triple = "x86_64-pc-linux-gnu"

%"struct.google::protobuf::internal::SCCInfoBase" = type { %"struct.std::atomic.7", i32, i32, ptr }
%"struct.std::atomic.7" = type { %"struct.std::__atomic_base.8" }
%"struct.std::__atomic_base.8" = type { i32 }

; Function Attrs: mustprogress nounwind uwtable
define linkonce_odr noundef i32 @_ZStanSt12memory_orderSt23__memory_order_modifier(i32 noundef %0, i32 noundef %1) #4 comdat {
  %3 = alloca i32, align 4
  %4 = alloca i32, align 4
  store i32 %0, ptr %3, align 4, !tbaa !160
  store i32 %1, ptr %4, align 4, !tbaa !194
  %5 = load i32, ptr %3, align 4, !tbaa !160
  %6 = load i32, ptr %4, align 4, !tbaa !194
  %7 = and i32 %5, %6
  ret i32 %7
}

; Function Attrs: alwaysinline mustprogress nounwind uwtable
define linkonce_odr void @_ZNSt13__atomic_baseIiE5storeEiSt12memory_order(ptr noundef nonnull align 4 dereferenceable(4) %0, i32 noundef %1, i32 noundef %2) #12 comdat align 2 {
  %4 = alloca ptr, align 8
  %5 = alloca i32, align 4
  %6 = alloca i32, align 4
  %7 = alloca i32, align 4
  %8 = alloca i32, align 4
  store ptr %0, ptr %4, align 8, !tbaa !164
  store i32 %1, ptr %5, align 4, !tbaa !36
  store i32 %2, ptr %6, align 4, !tbaa !160
  %9 = load ptr, ptr %4, align 8
  call void @llvm.lifetime.start.p0(i64 4, ptr %7) #3
  %10 = load i32, ptr %6, align 4, !tbaa !160
  %11 = call noundef i32 @_ZStanSt12memory_orderSt23__memory_order_modifier(i32 noundef %10, i32 noundef 65535)
  store i32 %11, ptr %7, align 4, !tbaa !160
  br label %12

12:                                               ; preds = %3
  br label %13

13:                                               ; preds = %12
  br label %14

14:                                               ; preds = %13
  br label %15

15:                                               ; preds = %14
  br label %16

16:                                               ; preds = %15
  br label %17

17:                                               ; preds = %16
  br label %18

18:                                               ; preds = %17
  br label %19

19:                                               ; preds = %18
  br label %20

20:                                               ; preds = %19
  %21 = getelementptr inbounds nuw %"struct.std::__atomic_base.8", ptr %9, i32 0, i32 0
  %22 = load i32, ptr %6, align 4, !tbaa !160
  %23 = load i32, ptr %5, align 4, !tbaa !36
  store i32 %23, ptr %8, align 4, !tbaa !36
  switch i32 %22, label %24 [
    i32 3, label %26
    i32 5, label %28
  ]

24:                                               ; preds = %20
  %25 = load i32, ptr %8, align 4
  store atomic i32 %25, ptr %21 monotonic, align 4
  br label %30

26:                                               ; preds = %20
  %27 = load i32, ptr %8, align 4
  store atomic i32 %27, ptr %21 release, align 4
  br label %30

28:                                               ; preds = %20
  %29 = load i32, ptr %8, align 4
  store atomic i32 %29, ptr %21 seq_cst, align 4
  br label %30

30:                                               ; preds = %28, %26, %24
  call void @llvm.lifetime.end.p0(i64 4, ptr %7) #3
  ret void
}

; Function Attrs: alwaysinline mustprogress nounwind uwtable
define linkonce_odr noundef i32 @_ZNKSt13__atomic_baseIiE4loadESt12memory_order(ptr noundef nonnull align 4 dereferenceable(4) %0, i32 noundef %1) #12 comdat align 2 {
  %3 = alloca ptr, align 8
  %4 = alloca i32, align 4
  %5 = alloca i32, align 4
  %6 = alloca i32, align 4
  store ptr %0, ptr %3, align 8, !tbaa !164
  store i32 %1, ptr %4, align 4, !tbaa !160
  %7 = load ptr, ptr %3, align 8
  call void @llvm.lifetime.start.p0(i64 4, ptr %5) #3
  %8 = load i32, ptr %4, align 4, !tbaa !160
  %9 = call noundef i32 @_ZStanSt12memory_orderSt23__memory_order_modifier(i32 noundef %8, i32 noundef 65535)
  store i32 %9, ptr %5, align 4, !tbaa !160
  br label %10

10:                                               ; preds = %2
  br label %11

11:                                               ; preds = %10
  br label %12

12:                                               ; preds = %11
  br label %13

13:                                               ; preds = %12
  br label %14

14:                                               ; preds = %13
  br label %15

15:                                               ; preds = %14
  %16 = getelementptr inbounds nuw %"struct.std::__atomic_base.8", ptr %7, i32 0, i32 0
  %17 = load i32, ptr %4, align 4, !tbaa !160
  switch i32 %17, label %18 [
    i32 1, label %20
    i32 2, label %20
    i32 5, label %22
  ]

18:                                               ; preds = %15
  %19 = load atomic i32, ptr %16 monotonic, align 4
  store i32 %19, ptr %6, align 4
  br label %24

20:                                               ; preds = %15, %15
  %21 = load atomic i32, ptr %16 acquire, align 4
  store i32 %21, ptr %6, align 4
  br label %24

22:                                               ; preds = %15
  %23 = load atomic i32, ptr %16 seq_cst, align 4
  store i32 %23, ptr %6, align 4
  br label %24

24:                                               ; preds = %22, %20, %18
  %25 = load i32, ptr %6, align 4, !tbaa !36
  call void @llvm.lifetime.end.p0(i64 4, ptr %5) #3
  ret i32 %25
}

; Function Attrs: mustprogress uwtable
define internal void @_ZN6google8protobuf8internal12_GLOBAL__N_111InitSCC_DFSEPNS1_11SCCInfoBaseE(ptr noundef %0) #5 {
  %2 = alloca ptr, align 8
  %3 = alloca ptr, align 8
  %4 = alloca ptr, align 8
  %5 = alloca i32, align 4
  %6 = alloca ptr, align 8
  %7 = alloca i32, align 4
  store ptr %0, ptr %2, align 8, !tbaa !153
  %8 = load ptr, ptr %2, align 8, !tbaa !153
  %9 = getelementptr inbounds nuw %"struct.google::protobuf::internal::SCCInfoBase", ptr %8, i32 0, i32 0
  %10 = call noundef i32 @_ZNKSt13__atomic_baseIiE4loadESt12memory_order(ptr noundef nonnull align 4 dereferenceable(4) %9, i32 noundef 0) #3
  %11 = icmp ne i32 %10, -1
  br i1 %11, label %12, label %13

12:                                               ; preds = %1
  br label %82

13:                                               ; preds = %1
  %14 = load ptr, ptr %2, align 8, !tbaa !153
  %15 = getelementptr inbounds nuw %"struct.google::protobuf::internal::SCCInfoBase", ptr %14, i32 0, i32 0
  call void @_ZNSt13__atomic_baseIiE5storeEiSt12memory_order(ptr noundef nonnull align 4 dereferenceable(4) %15, i32 noundef 1, i32 noundef 0) #3
  call void @llvm.lifetime.start.p0(i64 8, ptr %3) #3
  %16 = load ptr, ptr %2, align 8, !tbaa !153
  %17 = getelementptr inbounds %"struct.google::protobuf::internal::SCCInfoBase", ptr %16, i64 1
  store ptr %17, ptr %3, align 8, !tbaa !168
  call void @llvm.lifetime.start.p0(i64 8, ptr %4) #3
  %18 = load ptr, ptr %3, align 8, !tbaa !168
  store ptr %18, ptr %4, align 8, !tbaa !169
  call void @llvm.lifetime.start.p0(i64 4, ptr %5) #3
  store i32 0, ptr %5, align 4, !tbaa !36
  br label %19

19:                                               ; preds = %40, %13
  %20 = load i32, ptr %5, align 4, !tbaa !36
  %21 = load ptr, ptr %2, align 8, !tbaa !153
  %22 = getelementptr inbounds nuw %"struct.google::protobuf::internal::SCCInfoBase", ptr %21, i32 0, i32 1
  %23 = load i32, ptr %22, align 4, !tbaa !171
  %24 = icmp slt i32 %20, %23
  br i1 %24, label %26, label %25

25:                                               ; preds = %19
  call void @llvm.lifetime.end.p0(i64 4, ptr %5) #3
  br label %43

26:                                               ; preds = %19
  %27 = load ptr, ptr %4, align 8, !tbaa !169
  %28 = load i32, ptr %5, align 4, !tbaa !36
  %29 = sext i32 %28 to i64
  %30 = getelementptr inbounds ptr, ptr %27, i64 %29
  %31 = load ptr, ptr %30, align 8, !tbaa !153
  %32 = icmp ne ptr %31, null
  br i1 %32, label %33, label %39

33:                                               ; preds = %26
  %34 = load ptr, ptr %4, align 8, !tbaa !169
  %35 = load i32, ptr %5, align 4, !tbaa !36
  %36 = sext i32 %35 to i64
  %37 = getelementptr inbounds ptr, ptr %34, i64 %36
  %38 = load ptr, ptr %37, align 8, !tbaa !153
  call void @_ZN6google8protobuf8internal12_GLOBAL__N_111InitSCC_DFSEPNS1_11SCCInfoBaseE(ptr noundef %38)
  br label %39

39:                                               ; preds = %33, %26
  br label %40

40:                                               ; preds = %39
  %41 = load i32, ptr %5, align 4, !tbaa !36
  %42 = add nsw i32 %41, 1
  store i32 %42, ptr %5, align 4, !tbaa !36
  br label %19, !llvm.loop !175

43:                                               ; preds = %25
  call void @llvm.lifetime.start.p0(i64 8, ptr %6) #3
  %44 = load ptr, ptr %3, align 8, !tbaa !168
  %45 = load ptr, ptr %2, align 8, !tbaa !153
  %46 = getelementptr inbounds nuw %"struct.google::protobuf::internal::SCCInfoBase", ptr %45, i32 0, i32 1
  %47 = load i32, ptr %46, align 4, !tbaa !171
  %48 = sext i32 %47 to i64
  %49 = getelementptr inbounds ptr, ptr %44, i64 %48
  store ptr %49, ptr %6, align 8, !tbaa !176
  call void @llvm.lifetime.start.p0(i64 4, ptr %7) #3
  store i32 0, ptr %7, align 4, !tbaa !36
  br label %50

50:                                               ; preds = %73, %43
  %51 = load i32, ptr %7, align 4, !tbaa !36
  %52 = load ptr, ptr %2, align 8, !tbaa !153
  %53 = getelementptr inbounds nuw %"struct.google::protobuf::internal::SCCInfoBase", ptr %52, i32 0, i32 2
  %54 = load i32, ptr %53, align 8, !tbaa !179
  %55 = icmp slt i32 %51, %54
  br i1 %55, label %57, label %56

56:                                               ; preds = %50
  call void @llvm.lifetime.end.p0(i64 4, ptr %7) #3
  br label %76

57:                                               ; preds = %50
  %58 = load ptr, ptr %6, align 8, !tbaa !176
  %59 = load i32, ptr %7, align 4, !tbaa !36
  %60 = sext i32 %59 to i64
  %61 = getelementptr inbounds ptr, ptr %58, i64 %60
  %62 = load ptr, ptr %61, align 8, !tbaa !169
  %63 = load ptr, ptr %62, align 8, !tbaa !153
  %64 = icmp ne ptr %63, null
  br i1 %64, label %65, label %72

65:                                               ; preds = %57
  %66 = load ptr, ptr %6, align 8, !tbaa !176
  %67 = load i32, ptr %7, align 4, !tbaa !36
  %68 = sext i32 %67 to i64
  %69 = getelementptr inbounds ptr, ptr %66, i64 %68
  %70 = load ptr, ptr %69, align 8, !tbaa !169
  %71 = load ptr, ptr %70, align 8, !tbaa !153
  call void @_ZN6google8protobuf8internal12_GLOBAL__N_111InitSCC_DFSEPNS1_11SCCInfoBaseE(ptr noundef %71)
  br label %72

72:                                               ; preds = %65, %57
  br label %73

73:                                               ; preds = %72
  %74 = load i32, ptr %7, align 4, !tbaa !36
  %75 = add nsw i32 %74, 1
  store i32 %75, ptr %7, align 4, !tbaa !36
  br label %50, !llvm.loop !180

76:                                               ; preds = %56
  %77 = load ptr, ptr %2, align 8, !tbaa !153
  %78 = getelementptr inbounds nuw %"struct.google::protobuf::internal::SCCInfoBase", ptr %77, i32 0, i32 3
  %79 = load ptr, ptr %78, align 8, !tbaa !181
  call void %79()
  %80 = load ptr, ptr %2, align 8, !tbaa !153
  %81 = getelementptr inbounds nuw %"struct.google::protobuf::internal::SCCInfoBase", ptr %80, i32 0, i32 0
  call void @_ZNSt13__atomic_baseIiE5storeEiSt12memory_order(ptr noundef nonnull align 4 dereferenceable(4) %81, i32 noundef 0, i32 noundef 3) #3
  call void @llvm.lifetime.end.p0(i64 8, ptr %6) #3
  call void @llvm.lifetime.end.p0(i64 8, ptr %4) #3
  call void @llvm.lifetime.end.p0(i64 8, ptr %3) #3
  br label %82

82:                                               ; preds = %76, %12
  ret void
}