; Function Attrs: mustprogress uwtable
define internal fastcc void @_ZN6google8protobuf8internal12_GLOBAL__N_111InitSCC_DFSEPNS1_11SCCInfoBaseE(ptr noundef captures(none) %0) unnamed_addr #4 {
  %2 = load atomic i32, ptr %0 monotonic, align 4
  %.not = icmp eq i32 %2, -1
  br i1 %.not, label %3, label %31

3:                                                ; preds = %1
  store atomic i32 1, ptr %0 monotonic, align 4
  %4 = getelementptr inbounds nuw i8, ptr %0, i64 24
  %5 = getelementptr inbounds nuw i8, ptr %0, i64 4
  %6 = load i32, ptr %5, align 4, !tbaa !152
  %7 = icmp sgt i32 %6, 0
  br i1 %7, label %.lr.ph, label %.._crit_edge_crit_edge

.._crit_edge_crit_edge:                           ; preds = %3
  %.pre38 = sext i32 %6 to i64
  br label %._crit_edge

._crit_edge:                                      ; preds = %16, %.._crit_edge_crit_edge
  %.pre-phi = phi i64 [ %.pre38, %.._crit_edge_crit_edge ], [ %18, %16 ]
  %8 = getelementptr inbounds ptr, ptr %4, i64 %.pre-phi
  %9 = getelementptr inbounds nuw i8, ptr %0, i64 8
  %10 = load i32, ptr %9, align 8, !tbaa !156
  %11 = icmp sgt i32 %10, 0
  br i1 %11, label %.lr.ph30, label %._crit_edge31

.lr.ph:                                           ; preds = %3, %16
  %12 = phi i32 [ %17, %16 ], [ %6, %3 ]
  %indvars.iv = phi i64 [ %indvars.iv.next, %16 ], [ 0, %3 ]
  %13 = getelementptr inbounds nuw ptr, ptr %4, i64 %indvars.iv
  %14 = load ptr, ptr %13, align 8, !tbaa !157
  %.not26 = icmp eq ptr %14, null
  br i1 %.not26, label %16, label %15

15:                                               ; preds = %.lr.ph
  tail call fastcc void @_ZN6google8protobuf8internal12_GLOBAL__N_111InitSCC_DFSEPNS1_11SCCInfoBaseE(ptr noundef nonnull %14)
  %.pre = load i32, ptr %5, align 4, !tbaa !152
  br label %16

16:                                               ; preds = %.lr.ph, %15
  %17 = phi i32 [ %12, %.lr.ph ], [ %.pre, %15 ]
  %indvars.iv.next = add nuw nsw i64 %indvars.iv, 1
  %18 = sext i32 %17 to i64
  %19 = icmp slt i64 %indvars.iv.next, %18
  br i1 %19, label %.lr.ph, label %._crit_edge, !llvm.loop !159

._crit_edge31:                                    ; preds = %27, %._crit_edge
  %20 = getelementptr inbounds nuw i8, ptr %0, i64 16
  %21 = load ptr, ptr %20, align 8, !tbaa !160
  tail call void %21()
  store atomic i32 0, ptr %0 release, align 4
  br label %31

.lr.ph30:                                         ; preds = %._crit_edge, %27
  %22 = phi i32 [ %28, %27 ], [ %10, %._crit_edge ]
  %indvars.iv34 = phi i64 [ %indvars.iv.next35, %27 ], [ 0, %._crit_edge ]
  %23 = getelementptr inbounds nuw ptr, ptr %8, i64 %indvars.iv34
  %24 = load ptr, ptr %23, align 8, !tbaa !161
  %25 = load ptr, ptr %24, align 8, !tbaa !157
  %.not25 = icmp eq ptr %25, null
  br i1 %.not25, label %27, label %26

26:                                               ; preds = %.lr.ph30
  tail call fastcc void @_ZN6google8protobuf8internal12_GLOBAL__N_111InitSCC_DFSEPNS1_11SCCInfoBaseE(ptr noundef nonnull %25)
  %.pre37 = load i32, ptr %9, align 8, !tbaa !156
  br label %27

27:                                               ; preds = %.lr.ph30, %26
  %28 = phi i32 [ %22, %.lr.ph30 ], [ %.pre37, %26 ]
  %indvars.iv.next35 = add nuw nsw i64 %indvars.iv34, 1
  %29 = sext i32 %28 to i64
  %30 = icmp slt i64 %indvars.iv.next35, %29
  br i1 %30, label %.lr.ph30, label %._crit_edge31, !llvm.loop !164

31:                                               ; preds = %1, %._crit_edge31
  ret void
}